; Function Attrs: nounwind sspstrong uwtable
define dso_local noundef zeroext i1 @visit_type_q_obj_ringbuf_write_arg_members(ptr noundef %v, ptr noundef %obj, ptr noundef %errp) local_unnamed_addr #0 {
entry:
  %value.i = alloca i32, align 4
  %call = tail call zeroext i1 @visit_type_str(ptr noundef %v, ptr noundef nonnull @.str.6, ptr noundef %obj, ptr noundef %errp) #5
  br i1 %call, label %if.end, label %return

if.end:                                           ; preds = %entry
  %data = getelementptr inbounds nuw i8, ptr %obj, i64 8
  %call1 = tail call zeroext i1 @visit_type_str(ptr noundef %v, ptr noundef nonnull @.str.7, ptr noundef nonnull %data, ptr noundef %errp) #5
  br i1 %call1, label %if.end3, label %return

if.end3:                                          ; preds = %if.end
  %has_format = getelementptr inbounds nuw i8, ptr %obj, i64 16
  %call4 = tail call zeroext i1 @visit_optional(ptr noundef %v, ptr noundef nonnull @.str.8, ptr noundef nonnull %has_format) #5
  br i1 %call4, label %if.then5, label %if.end9

if.then5:                                         ; preds = %if.end3
  %format = getelementptr inbounds nuw i8, ptr %obj, i64 20
  call void @llvm.lifetime.start.p0(i64 4, ptr nonnull %value.i)
  %0 = load i32, ptr %format, align 4
  store i32 %0, ptr %value.i, align 4
  %call.i = call zeroext i1 @visit_type_enum(ptr noundef %v, ptr noundef nonnull @.str.8, ptr noundef nonnull %value.i, ptr noundef nonnull @DataFormat_lookup, ptr noundef %errp) #5
  %1 = load i32, ptr %value.i, align 4
  store i32 %1, ptr %format, align 4
  call void @llvm.lifetime.end.p0(i64 4, ptr nonnull %value.i)
  br i1 %call.i, label %if.end9, label %return

if.end9:                                          ; preds = %if.then5, %if.end3
  br label %return

return:                                           ; preds = %if.then5, %if.end, %entry, %if.end9
  %retval.0 = phi i1 [ true, %if.end9 ], [ false, %entry ], [ false, %if.end ], [ false, %if.then5 ]
  ret i1 %retval.0
}